(dp0
S'BankAccount'
p1
(lp2
sS'SalaryNominee'
p3
(lp4
sS'Attendance'
p5
(lp6
sS'Log'
p7
(lp8
sS'Department'
p9
(lp10
sS'SalarySlip'
p11
(lp12
sS'Employee'
p13
(lp14
sS'FamilyMember'
p15
(lp16
sS'Document'
p17
(lp18
sS'EducationalQualification'
p19
(lp20
sS'SalaryDetails'
p21
(lp22
sS'UserDetails'
p23
(lp24
s.